; Function Attrs: nounwind uwtable
define dso_local noundef i32 @main(i32 noundef %0, ptr noundef readonly captures(none) %1) local_unnamed_addr #0 {
  %3 = alloca i64, align 8
  %4 = alloca [1024 x i8], align 16
  call void @llvm.lifetime.start.p0(i64 8, ptr nonnull %3) #5
  call void @llvm.lifetime.start.p0(i64 1024, ptr nonnull %4) #5
  %5 = load ptr, ptr %1, align 8
  tail call void @set_pglocale_pgservice(ptr noundef %5, ptr noundef nonnull @.str) #5
  %6 = load ptr, ptr %1, align 8
  %7 = tail call ptr @get_progname(ptr noundef %6) #5
  store ptr %7, ptr @progname, align 8
  %8 = icmp sgt i32 %0, 1
  br i1 %8, label %.lr.ph.preheader, label %._crit_edge

.lr.ph.preheader:                                 ; preds = %2
  %wide.trip.count = zext nneg i32 %0 to i64
  br label %.lr.ph

.tail.thread:                                     ; preds = %sub_1, %sub_0, %.tail
  %indvars.iv.next = add nuw nsw i64 %indvars.iv, 1
  %exitcond.not = icmp eq i64 %indvars.iv.next, %wide.trip.count
  br i1 %exitcond.not, label %._crit_edge, label %.lr.ph, !llvm.loop !4

.lr.ph:                                           ; preds = %.lr.ph.preheader, %.tail.thread
  %indvars.iv = phi i64 [ 1, %.lr.ph.preheader ], [ %indvars.iv.next, %.tail.thread ]
  %9 = getelementptr inbounds nuw ptr, ptr %1, i64 %indvars.iv
  %10 = load ptr, ptr %9, align 8
  %11 = tail call i32 @strcmp(ptr noundef nonnull dereferenceable(1) %10, ptr noundef nonnull dereferenceable(7) @.str.1) #6
  %12 = icmp eq i32 %11, 0
  br i1 %12, label %19, label %sub_0

sub_0:                                            ; preds = %.lr.ph
  %13 = load i8, ptr %10, align 1
  %.not44 = icmp eq i8 %13, 45
  br i1 %.not44, label %sub_1, label %.tail.thread

sub_1:                                            ; preds = %sub_0
  %14 = getelementptr inbounds nuw i8, ptr %10, i64 1
  %15 = load i8, ptr %14, align 1
  %.not45 = icmp eq i8 %15, 63
  br i1 %.not45, label %.tail, label %.tail.thread

.tail:                                            ; preds = %sub_1
  %16 = getelementptr inbounds nuw i8, ptr %10, i64 2
  %17 = load i8, ptr %16, align 1
  %18 = icmp eq i8 %17, 0
  br i1 %18, label %19, label %.tail.thread

19:                                               ; preds = %.tail, %.lr.ph
  tail call fastcc void @help()
  tail call void @exit(i32 noundef 0) #7
  unreachable

._crit_edge:                                      ; preds = %.tail.thread, %2
  %20 = load ptr, ptr %1, align 8
  %21 = call i32 @find_my_exec(ptr noundef %20, ptr noundef nonnull %4) #5
  %22 = icmp slt i32 %21, 0
  br i1 %22, label %23, label %27

23:                                               ; preds = %._crit_edge
  %24 = load ptr, ptr @stderr, align 8
  %25 = load ptr, ptr @progname, align 8
  %26 = call i32 (ptr, ptr, ...) @pg_fprintf(ptr noundef %24, ptr noundef nonnull @.str.3, ptr noundef %25) #5
  call void @exit(i32 noundef 1) #8
  unreachable

27:                                               ; preds = %._crit_edge
  %28 = call ptr @get_configdata(ptr noundef nonnull %4, ptr noundef nonnull %3) #5
  %29 = icmp slt i32 %0, 2
  br i1 %29, label %.preheader, label %.preheader34.preheader

.preheader34.preheader:                           ; preds = %27
  %wide.trip.count57 = zext nneg i32 %0 to i64
  br label %.preheader34

.preheader:                                       ; preds = %27
  %30 = load i64, ptr %3, align 8
  %.not46 = icmp eq i64 %30, 0
  br i1 %.not46, label %._crit_edge43, label %.lr.ph42

.lr.ph42:                                         ; preds = %.preheader, %.lr.ph42
  %31 = phi i64 [ %38, %.lr.ph42 ], [ 0, %.preheader ]
  %.141 = phi i32 [ %37, %.lr.ph42 ], [ 0, %.preheader ]
  %32 = getelementptr inbounds %struct.ConfigData, ptr %28, i64 %31
  %33 = load ptr, ptr %32, align 8
  %34 = getelementptr inbounds nuw i8, ptr %32, i64 8
  %35 = load ptr, ptr %34, align 8
  %36 = call i32 (ptr, ...) @pg_printf(ptr noundef nonnull @.str.4, ptr noundef %33, ptr noundef %35) #5
  %37 = add i32 %.141, 1
  %38 = sext i32 %37 to i64
  %39 = load i64, ptr %3, align 8
  %40 = icmp ugt i64 %39, %38
  br i1 %40, label %.lr.ph42, label %._crit_edge43, !llvm.loop !6

._crit_edge43:                                    ; preds = %.lr.ph42, %.preheader
  call void @exit(i32 noundef 0) #7
  unreachable

.preheader34:                                     ; preds = %.preheader34.preheader, %show_item.exit.thread33
  %indvars.iv54 = phi i64 [ 1, %.preheader34.preheader ], [ %indvars.iv.next55, %show_item.exit.thread33 ]
  %41 = getelementptr inbounds nuw ptr, ptr %1, i64 %indvars.iv54
  %42 = load ptr, ptr %41, align 8
  %43 = call i32 @strcmp(ptr noundef nonnull dereferenceable(1) %42, ptr noundef nonnull dereferenceable(9) @.str.40) #6
  %44 = icmp eq i32 %43, 0
  br i1 %44, label %._crit_edge65, label %.lr.ph64

.lr.ph64:                                         ; preds = %.preheader34, %45
  %indvars.iv5063 = phi i64 [ %indvars.iv.next51, %45 ], [ 0, %.preheader34 ]
  %indvars.iv.next51 = add nuw nsw i64 %indvars.iv5063, 1
  %exitcond53 = icmp eq i64 %indvars.iv.next51, 23
  br i1 %exitcond53, label %show_item.exit.thread, label %45, !llvm.loop !7

45:                                               ; preds = %.lr.ph64
  %46 = getelementptr inbounds nuw [24 x %struct.InfoItem], ptr @info_items, i64 0, i64 %indvars.iv.next51
  %47 = load ptr, ptr %46, align 16
  %48 = call i32 @strcmp(ptr noundef nonnull dereferenceable(1) %42, ptr noundef nonnull dereferenceable(1) %47) #6
  %49 = icmp eq i32 %48, 0
  br i1 %49, label %._crit_edge65, label %.lr.ph64, !llvm.loop !7

._crit_edge65:                                    ; preds = %45, %.preheader34
  %.lcssa = phi ptr [ @info_items, %.preheader34 ], [ %46, %45 ]
  %50 = getelementptr inbounds nuw i8, ptr %.lcssa, i64 8
  %51 = load ptr, ptr %50, align 8
  %52 = load i64, ptr %3, align 8
  %.not.i = icmp eq i64 %52, 0
  br i1 %.not.i, label %show_item.exit.thread33, label %.lr.ph.i

.lr.ph.i:                                         ; preds = %._crit_edge65, %62
  %53 = phi i64 [ %64, %62 ], [ 0, %._crit_edge65 ]
  %.08.i = phi i32 [ %63, %62 ], [ 0, %._crit_edge65 ]
  %54 = getelementptr inbounds %struct.ConfigData, ptr %28, i64 %53
  %55 = load ptr, ptr %54, align 8
  %56 = call i32 @strcmp(ptr noundef nonnull readonly dereferenceable(1) %51, ptr noundef nonnull dereferenceable(1) %55) #6
  %57 = icmp eq i32 %56, 0
  br i1 %57, label %58, label %62

58:                                               ; preds = %.lr.ph.i
  %59 = getelementptr inbounds nuw i8, ptr %54, i64 8
  %60 = load ptr, ptr %59, align 8
  %61 = call i32 (ptr, ...) @pg_printf(ptr noundef nonnull @.str.86, ptr noundef %60) #5
  br label %62

62:                                               ; preds = %58, %.lr.ph.i
  %63 = add i32 %.08.i, 1
  %64 = sext i32 %63 to i64
  %65 = icmp ugt i64 %52, %64
  br i1 %65, label %.lr.ph.i, label %show_item.exit.thread33, !llvm.loop !8

show_item.exit.thread:                            ; preds = %.lr.ph64
  %66 = load ptr, ptr @stderr, align 8
  %67 = load ptr, ptr @progname, align 8
  %68 = and i64 %indvars.iv54, 4294967295
  %69 = getelementptr inbounds nuw ptr, ptr %1, i64 %68
  %70 = load ptr, ptr %69, align 8
  %71 = call i32 (ptr, ptr, ...) @pg_fprintf(ptr noundef %66, ptr noundef nonnull @.str.5, ptr noundef %67, ptr noundef %70) #5
  call fastcc void @advice()
  call void @exit(i32 noundef 1) #8
  unreachable

show_item.exit.thread33:                          ; preds = %62, %._crit_edge65
  %indvars.iv.next55 = add nuw nsw i64 %indvars.iv54, 1
  %exitcond58.not = icmp eq i64 %indvars.iv.next55, %wide.trip.count57
  br i1 %exitcond58.not, label %72, label %.preheader34, !llvm.loop !9

72:                                               ; preds = %show_item.exit.thread33
  call void @llvm.lifetime.end.p0(i64 1024, ptr nonnull %4) #5
  call void @llvm.lifetime.end.p0(i64 8, ptr nonnull %3) #5
  ret i32 0
}